target datalayout = "e-m:e-p270:32:32-p271:32:32-p272:64:64-i64:64-i128:128-f80:128-n8:16:32:64-S128"
target triple = "x86_64-pc-linux-gnu"

%"struct.faiss::VectorTransform" = type <{ ptr, i32, i32, i8, [7 x i8] }>
%"struct.faiss::VectorTransform.base" = type <{ ptr, i32, i32, i8 }>
%"struct.faiss::NormalizationTransform" = type { %"struct.faiss::VectorTransform.base", float }

; Function Attrs: mustprogress nounwind uwtable
define linkonce_odr void @_ZN5faiss15VectorTransformC2Eii(ptr noundef nonnull align 8 dereferenceable(17) %0, i32 noundef %1, i32 noundef %2) unnamed_addr #0 comdat align 2 {
  %4 = alloca ptr, align 8
  %5 = alloca i32, align 4
  %6 = alloca i32, align 4
  store ptr %0, ptr %4, align 8, !tbaa !4
  store i32 %1, ptr %5, align 4, !tbaa !21
  store i32 %2, ptr %6, align 4, !tbaa !21
  %7 = load ptr, ptr %4, align 8
  store ptr getelementptr inbounds inrange(-16, 48) ({ [8 x ptr] }, ptr @_ZTVN5faiss15VectorTransformE, i32 0, i32 0, i32 2), ptr %7, align 8, !tbaa !44
  %8 = getelementptr inbounds nuw %"struct.faiss::VectorTransform", ptr %7, i32 0, i32 1
  %9 = load i32, ptr %5, align 4, !tbaa !21
  store i32 %9, ptr %8, align 8, !tbaa !34
  %10 = getelementptr inbounds nuw %"struct.faiss::VectorTransform", ptr %7, i32 0, i32 2
  %11 = load i32, ptr %6, align 4, !tbaa !21
  store i32 %11, ptr %10, align 4, !tbaa !28
  %12 = getelementptr inbounds nuw %"struct.faiss::VectorTransform", ptr %7, i32 0, i32 3
  store i8 1, ptr %12, align 8, !tbaa !15
  ret void
}

; Function Attrs: mustprogress nounwind uwtable
define void @_ZN5faiss22NormalizationTransformC2Eif(ptr noundef nonnull align 8 dereferenceable(24) %0, i32 noundef %1, float noundef %2) unnamed_addr #0 align 2 {
  %4 = alloca ptr, align 8
  %5 = alloca i32, align 4
  %6 = alloca float, align 4
  store ptr %0, ptr %4, align 8, !tbaa !131
  store i32 %1, ptr %5, align 4, !tbaa !21
  store float %2, ptr %6, align 4, !tbaa !29
  %7 = load ptr, ptr %4, align 8
  %8 = load i32, ptr %5, align 4, !tbaa !21
  %9 = load i32, ptr %5, align 4, !tbaa !21
  call void @_ZN5faiss15VectorTransformC2Eii(ptr noundef nonnull align 8 dereferenceable(17) %7, i32 noundef %8, i32 noundef %9)
  store ptr getelementptr inbounds inrange(-16, 48) ({ [8 x ptr] }, ptr @_ZTVN5faiss22NormalizationTransformE, i32 0, i32 0, i32 2), ptr %7, align 8, !tbaa !44
  %10 = getelementptr inbounds nuw %"struct.faiss::NormalizationTransform", ptr %7, i32 0, i32 1
  %11 = load float, ptr %6, align 4, !tbaa !29
  store float %11, ptr %10, align 4, !tbaa !133
  ret void
}