; Function Attrs: mustprogress nofree norecurse nosync nounwind willreturn memory(argmem: write) uwtable
define void @_ZN5faiss22NormalizationTransformC2Eif(ptr noundef nonnull writeonly align 8 captures(none) dereferenceable(24) initializes((0, 17), (20, 24)) %0, i32 noundef %1, float noundef %2) unnamed_addr #17 align 2 {
  %4 = getelementptr inbounds nuw i8, ptr %0, i64 8
  store i32 %1, ptr %4, align 8, !tbaa !37
  %5 = getelementptr inbounds nuw i8, ptr %0, i64 12
  store i32 %1, ptr %5, align 4, !tbaa !29
  %6 = getelementptr inbounds nuw i8, ptr %0, i64 16
  store i8 1, ptr %6, align 8, !tbaa !16
  store ptr getelementptr inbounds nuw inrange(-16, 48) (i8, ptr @_ZTVN5faiss22NormalizationTransformE, i64 16), ptr %0, align 8, !tbaa !41
  %7 = getelementptr inbounds nuw i8, ptr %0, i64 20
  store float %2, ptr %7, align 4, !tbaa !130
  ret void
}